; Function Attrs: mustprogress nounwind uwtable
define dso_local noundef zeroext i1 @_ZNK4llvm6detail16SlowDynamicAPIntgtERKS1_(ptr noundef nonnull align 8 dereferenceable(16) %0, ptr noundef nonnull align 8 dereferenceable(16) %1) local_unnamed_addr #1 align 2 {
  %3 = alloca %"class.llvm::APInt", align 8
  %4 = alloca %"class.llvm::APInt", align 8
  %5 = getelementptr inbounds i8, ptr %0, i64 8
  %.val = load i32, ptr %5, align 8
  %6 = getelementptr inbounds i8, ptr %1, i64 8
  %.val4 = load i32, ptr %6, align 8
  %.sroa.speculated.i = tail call noundef i32 @llvm.umax.i32(i32 %.val, i32 %.val4)
  call void @_ZNK4llvm5APInt4sextEj(ptr dead_on_unwind nonnull writable sret(%"class.llvm::APInt") align 8 %3, ptr noundef nonnull align 8 dereferenceable(12) %0, i32 noundef %.sroa.speculated.i) #9
  call void @_ZNK4llvm5APInt4sextEj(ptr dead_on_unwind nonnull writable sret(%"class.llvm::APInt") align 8 %4, ptr noundef nonnull align 8 dereferenceable(12) %1, i32 noundef %.sroa.speculated.i) #9
  %7 = call noundef i32 @_ZNK4llvm5APInt13compareSignedERKS0_(ptr noundef nonnull align 8 dereferenceable(12) %3, ptr noundef nonnull align 8 dereferenceable(12) %4) #11
  %8 = getelementptr inbounds nuw i8, ptr %4, i64 8
  %9 = load i32, ptr %8, align 8
  %10 = icmp ugt i32 %9, 64
  br i1 %10, label %11, label %_ZN4llvm5APIntD2Ev.exit

11:                                               ; preds = %2
  %12 = load ptr, ptr %4, align 8
  %13 = icmp eq ptr %12, null
  br i1 %13, label %_ZN4llvm5APIntD2Ev.exit, label %14

14:                                               ; preds = %11
  call void @_ZdaPv(ptr noundef nonnull %12) #10
  br label %_ZN4llvm5APIntD2Ev.exit

_ZN4llvm5APIntD2Ev.exit:                          ; preds = %2, %11, %14
  %15 = getelementptr inbounds nuw i8, ptr %3, i64 8
  %16 = load i32, ptr %15, align 8
  %17 = icmp ugt i32 %16, 64
  br i1 %17, label %18, label %_ZN4llvm5APIntD2Ev.exit5

18:                                               ; preds = %_ZN4llvm5APIntD2Ev.exit
  %19 = load ptr, ptr %3, align 8
  %20 = icmp eq ptr %19, null
  br i1 %20, label %_ZN4llvm5APIntD2Ev.exit5, label %21

21:                                               ; preds = %18
  call void @_ZdaPv(ptr noundef nonnull %19) #10
  br label %_ZN4llvm5APIntD2Ev.exit5

_ZN4llvm5APIntD2Ev.exit5:                         ; preds = %_ZN4llvm5APIntD2Ev.exit, %18, %21
  %22 = icmp sgt i32 %7, 0
  ret i1 %22
}